target datalayout = "e-m:e-p270:32:32-p271:32:32-p272:64:64-i64:64-i128:128-f80:128-n8:16:32:64-S128"
target triple = "x86_64-pc-linux-gnu"

%"class.cvc5::internal::NodeTemplate" = type { ptr }
%"struct.std::_Rb_tree_header" = type { %"struct.std::_Rb_tree_node_base", i64 }
%"struct.std::_Rb_tree_node_base" = type { i32, ptr, ptr, ptr }
%"class.cvc5::internal::TypeNode" = type { ptr }
%"class.cvc5::internal::NodeTemplate.73" = type { ptr }
%"class.cvc5::internal::expr::NodeValue" = type { i64, i64, ptr, [0 x ptr] }
%"struct.std::__detail::_Hash_node_base" = type { ptr }
%"struct.std::__detail::_Prime_rehash_policy" = type { float, i64 }
%"class.cvc5::internal::expr::Attribute" = type { i8 }
%"class.cvc5::internal::expr::Attribute.234" = type { i8 }
%"class.cvc5::internal::NodeManager" = type { %"class.std::unique_ptr", %"class.std::unique_ptr.2", %"class.std::unordered_set", i64, ptr, ptr, i8, %"class.std::unordered_set.15", %"class.std::vector", [378 x %"class.cvc5::internal::NodeTemplate"], %"class.std::map.29", %"class.std::vector.35", %"class.std::vector.40", %"class.std::map.45", %"class.std::map.51", %"class.cvc5::internal::NodeManager::TupleTypeCache", %"class.std::map.63", %"class.cvc5::internal::NodeManager::RecTypeCache" }
%"class.std::unique_ptr" = type { %"struct.std::__uniq_ptr_data" }
%"struct.std::__uniq_ptr_data" = type { %"class.std::__uniq_ptr_impl" }
%"class.std::__uniq_ptr_impl" = type { %"class.std::tuple" }
%"class.std::tuple" = type { %"struct.std::_Tuple_impl" }
%"struct.std::_Tuple_impl" = type { %"struct.std::_Head_base.1" }
%"struct.std::_Head_base.1" = type { ptr }
%"class.std::unique_ptr.2" = type { %"struct.std::__uniq_ptr_data.3" }
%"struct.std::__uniq_ptr_data.3" = type { %"class.std::__uniq_ptr_impl.4" }
%"class.std::__uniq_ptr_impl.4" = type { %"class.std::tuple.5" }
%"class.std::tuple.5" = type { %"struct.std::_Tuple_impl.6" }
%"struct.std::_Tuple_impl.6" = type { %"struct.std::_Head_base.9" }
%"struct.std::_Head_base.9" = type { ptr }
%"class.std::unordered_set" = type { %"class.std::_Hashtable" }
%"class.std::_Hashtable" = type { ptr, i64, %"struct.std::__detail::_Hash_node_base", i64, %"struct.std::__detail::_Prime_rehash_policy", ptr }
%"class.std::unordered_set.15" = type { %"class.std::_Hashtable.16" }
%"class.std::_Hashtable.16" = type { ptr, i64, %"struct.std::__detail::_Hash_node_base", i64, %"struct.std::__detail::_Prime_rehash_policy", ptr }
%"class.std::vector" = type { %"struct.std::_Vector_base" }
%"struct.std::_Vector_base" = type { %"struct.std::_Vector_base<cvc5::internal::expr::NodeValue *, std::allocator<cvc5::internal::expr::NodeValue *>>::_Vector_impl" }
%"struct.std::_Vector_base<cvc5::internal::expr::NodeValue *, std::allocator<cvc5::internal::expr::NodeValue *>>::_Vector_impl" = type { %"struct.std::_Vector_base<cvc5::internal::expr::NodeValue *, std::allocator<cvc5::internal::expr::NodeValue *>>::_Vector_impl_data" }
%"struct.std::_Vector_base<cvc5::internal::expr::NodeValue *, std::allocator<cvc5::internal::expr::NodeValue *>>::_Vector_impl_data" = type { ptr, ptr, ptr }
%"class.std::map.29" = type { %"class.std::_Rb_tree.30" }
%"class.std::_Rb_tree.30" = type { %"struct.std::_Rb_tree<cvc5::internal::kind::Kind_t, std::pair<const cvc5::internal::kind::Kind_t, std::map<cvc5::internal::TypeNode, cvc5::internal::NodeTemplate<true>>>, std::_Select1st<std::pair<const cvc5::internal::kind::Kind_t, std::map<cvc5::internal::TypeNode, cvc5::internal::NodeTemplate<true>>>>, std::less<cvc5::internal::kind::Kind_t>>::_Rb_tree_impl" }
%"struct.std::_Rb_tree<cvc5::internal::kind::Kind_t, std::pair<const cvc5::internal::kind::Kind_t, std::map<cvc5::internal::TypeNode, cvc5::internal::NodeTemplate<true>>>, std::_Select1st<std::pair<const cvc5::internal::kind::Kind_t, std::map<cvc5::internal::TypeNode, cvc5::internal::NodeTemplate<true>>>>, std::less<cvc5::internal::kind::Kind_t>>::_Rb_tree_impl" = type { [8 x i8], %"struct.std::_Rb_tree_header" }
%"class.std::vector.35" = type { %"struct.std::_Vector_base.36" }
%"struct.std::_Vector_base.36" = type { %"struct.std::_Vector_base<std::unique_ptr<cvc5::internal::DType>, std::allocator<std::unique_ptr<cvc5::internal::DType>>>::_Vector_impl" }
%"struct.std::_Vector_base<std::unique_ptr<cvc5::internal::DType>, std::allocator<std::unique_ptr<cvc5::internal::DType>>>::_Vector_impl" = type { %"struct.std::_Vector_base<std::unique_ptr<cvc5::internal::DType>, std::allocator<std::unique_ptr<cvc5::internal::DType>>>::_Vector_impl_data" }
%"struct.std::_Vector_base<std::unique_ptr<cvc5::internal::DType>, std::allocator<std::unique_ptr<cvc5::internal::DType>>>::_Vector_impl_data" = type { ptr, ptr, ptr }
%"class.std::vector.40" = type { %"struct.std::_Vector_base.41" }
%"struct.std::_Vector_base.41" = type { %"struct.std::_Vector_base<std::unique_ptr<cvc5::internal::Oracle>, std::allocator<std::unique_ptr<cvc5::internal::Oracle>>>::_Vector_impl" }
%"struct.std::_Vector_base<std::unique_ptr<cvc5::internal::Oracle>, std::allocator<std::unique_ptr<cvc5::internal::Oracle>>>::_Vector_impl" = type { %"struct.std::_Vector_base<std::unique_ptr<cvc5::internal::Oracle>, std::allocator<std::unique_ptr<cvc5::internal::Oracle>>>::_Vector_impl_data" }
%"struct.std::_Vector_base<std::unique_ptr<cvc5::internal::Oracle>, std::allocator<std::unique_ptr<cvc5::internal::Oracle>>>::_Vector_impl_data" = type { ptr, ptr, ptr }
%"class.std::map.45" = type { %"class.std::_Rb_tree.46" }
%"class.std::_Rb_tree.46" = type { %"struct.std::_Rb_tree<std::pair<std::__cxx11::basic_string<char>, unsigned long>, std::pair<const std::pair<std::__cxx11::basic_string<char>, unsigned long>, cvc5::internal::TypeNode>, std::_Select1st<std::pair<const std::pair<std::__cxx11::basic_string<char>, unsigned long>, cvc5::internal::TypeNode>>, std::less<std::pair<std::__cxx11::basic_string<char>, unsigned long>>>::_Rb_tree_impl" }
%"struct.std::_Rb_tree<std::pair<std::__cxx11::basic_string<char>, unsigned long>, std::pair<const std::pair<std::__cxx11::basic_string<char>, unsigned long>, cvc5::internal::TypeNode>, std::_Select1st<std::pair<const std::pair<std::__cxx11::basic_string<char>, unsigned long>, cvc5::internal::TypeNode>>, std::less<std::pair<std::__cxx11::basic_string<char>, unsigned long>>>::_Rb_tree_impl" = type { [8 x i8], %"struct.std::_Rb_tree_header" }
%"class.std::map.51" = type { %"class.std::_Rb_tree.52" }
%"class.std::_Rb_tree.52" = type { %"struct.std::_Rb_tree<std::pair<std::__cxx11::basic_string<char>, cvc5::internal::TypeNode>, std::pair<const std::pair<std::__cxx11::basic_string<char>, cvc5::internal::TypeNode>, cvc5::internal::NodeTemplate<true>>, std::_Select1st<std::pair<const std::pair<std::__cxx11::basic_string<char>, cvc5::internal::TypeNode>, cvc5::internal::NodeTemplate<true>>>, std::less<std::pair<std::__cxx11::basic_string<char>, cvc5::internal::TypeNode>>>::_Rb_tree_impl" }
%"struct.std::_Rb_tree<std::pair<std::__cxx11::basic_string<char>, cvc5::internal::TypeNode>, std::pair<const std::pair<std::__cxx11::basic_string<char>, cvc5::internal::TypeNode>, cvc5::internal::NodeTemplate<true>>, std::_Select1st<std::pair<const std::pair<std::__cxx11::basic_string<char>, cvc5::internal::TypeNode>, cvc5::internal::NodeTemplate<true>>>, std::less<std::pair<std::__cxx11::basic_string<char>, cvc5::internal::TypeNode>>>::_Rb_tree_impl" = type { [8 x i8], %"struct.std::_Rb_tree_header" }
%"class.cvc5::internal::NodeManager::TupleTypeCache" = type { %"class.std::map.57", %"class.cvc5::internal::TypeNode" }
%"class.std::map.57" = type { %"class.std::_Rb_tree.58" }
%"class.std::_Rb_tree.58" = type { %"struct.std::_Rb_tree<cvc5::internal::TypeNode, std::pair<const cvc5::internal::TypeNode, cvc5::internal::NodeManager::TupleTypeCache>, std::_Select1st<std::pair<const cvc5::internal::TypeNode, cvc5::internal::NodeManager::TupleTypeCache>>, std::less<cvc5::internal::TypeNode>>::_Rb_tree_impl" }
%"struct.std::_Rb_tree<cvc5::internal::TypeNode, std::pair<const cvc5::internal::TypeNode, cvc5::internal::NodeManager::TupleTypeCache>, std::_Select1st<std::pair<const cvc5::internal::TypeNode, cvc5::internal::NodeManager::TupleTypeCache>>, std::less<cvc5::internal::TypeNode>>::_Rb_tree_impl" = type { [8 x i8], %"struct.std::_Rb_tree_header" }
%"class.std::map.63" = type { %"class.std::_Rb_tree.64" }
%"class.std::_Rb_tree.64" = type { %"struct.std::_Rb_tree<cvc5::internal::TypeNode, std::pair<const cvc5::internal::TypeNode, cvc5::internal::TypeNode>, std::_Select1st<std::pair<const cvc5::internal::TypeNode, cvc5::internal::TypeNode>>, std::less<cvc5::internal::TypeNode>>::_Rb_tree_impl" }
%"struct.std::_Rb_tree<cvc5::internal::TypeNode, std::pair<const cvc5::internal::TypeNode, cvc5::internal::TypeNode>, std::_Select1st<std::pair<const cvc5::internal::TypeNode, cvc5::internal::TypeNode>>, std::less<cvc5::internal::TypeNode>>::_Rb_tree_impl" = type { [8 x i8], %"struct.std::_Rb_tree_header" }
%"class.cvc5::internal::NodeManager::RecTypeCache" = type { %"class.std::map.68", %"class.cvc5::internal::TypeNode" }
%"class.std::map.68" = type { %"class.std::_Rb_tree.69" }
%"class.std::_Rb_tree.69" = type { %"struct.std::_Rb_tree<cvc5::internal::TypeNode, std::pair<const cvc5::internal::TypeNode, std::map<std::__cxx11::basic_string<char>, cvc5::internal::NodeManager::RecTypeCache>>, std::_Select1st<std::pair<const cvc5::internal::TypeNode, std::map<std::__cxx11::basic_string<char>, cvc5::internal::NodeManager::RecTypeCache>>>, std::less<cvc5::internal::TypeNode>>::_Rb_tree_impl" }
%"struct.std::_Rb_tree<cvc5::internal::TypeNode, std::pair<const cvc5::internal::TypeNode, std::map<std::__cxx11::basic_string<char>, cvc5::internal::NodeManager::RecTypeCache>>, std::_Select1st<std::pair<const cvc5::internal::TypeNode, std::map<std::__cxx11::basic_string<char>, cvc5::internal::NodeManager::RecTypeCache>>>, std::less<cvc5::internal::TypeNode>>::_Rb_tree_impl" = type { [8 x i8], %"struct.std::_Rb_tree_header" }

; Function Attrs: inlinehint mustprogress uwtable
define linkonce_odr hidden void @_ZN4cvc58internal11NodeManager12setAttributeINS0_4expr9AttributeINS0_6theory7strings31ArithEntailConstantBoundUpperIdENS0_12NodeTemplateILb1EEEEEEEvNS8_ILb0EEERKT_RKNSC_10value_typeE(ptr noundef nonnull align 8 dereferenceable(3560) %0, ptr noundef %1, ptr noundef nonnull align 1 dereferenceable(1) %2, ptr noundef nonnull align 8 dereferenceable(8) %3) #8 comdat align 2 {
  %5 = alloca ptr, align 8
  %6 = alloca ptr, align 8
  %7 = alloca ptr, align 8
  %8 = alloca ptr, align 8
  %9 = alloca %"class.cvc5::internal::expr::Attribute.234", align 1
  store ptr %0, ptr %5, align 8, !tbaa !38
  store ptr %1, ptr %6, align 8, !tbaa !46
  store ptr %2, ptr %7, align 8, !tbaa !222
  store ptr %3, ptr %8, align 8, !tbaa !29
  %10 = load ptr, ptr %5, align 8
  %11 = getelementptr inbounds nuw %"class.cvc5::internal::NodeManager", ptr %10, i32 0, i32 4
  %12 = load ptr, ptr %11, align 8, !tbaa !726
  %13 = getelementptr inbounds nuw %"class.cvc5::internal::NodeTemplate.73", ptr %1, i32 0, i32 0
  %14 = load ptr, ptr %13, align 8, !tbaa !48
  call void @llvm.lifetime.start.p0(i64 1, ptr %9) #3
  %15 = load ptr, ptr %8, align 8, !tbaa !29
  call void @_ZN4cvc58internal4expr4attr16AttributeManager12setAttributeINS1_9AttributeINS0_6theory7strings31ArithEntailConstantBoundUpperIdENS0_12NodeTemplateILb1EEEEEEEvPNS1_9NodeValueERKT_RKNSE_10value_typeE(ptr noundef nonnull align 8 dereferenceable(344) %12, ptr noundef %14, ptr noundef nonnull align 1 dereferenceable(1) %9, ptr noundef nonnull align 8 dereferenceable(8) %15)
  call void @llvm.lifetime.end.p0(i64 1, ptr %9) #3
  ret void
}

; Function Attrs: mustprogress nounwind uwtable
define linkonce_odr hidden void @_ZN4cvc58internal12NodeTemplateILb0EED2Ev(ptr noundef nonnull align 8 dereferenceable(8) %0) unnamed_addr #5 comdat align 2 {
  %2 = alloca ptr, align 8
  store ptr %0, ptr %2, align 8, !tbaa !46
  ret void
}

; Function Attrs: inlinehint mustprogress uwtable
define linkonce_odr hidden void @_ZN4cvc58internal11NodeManager12setAttributeINS0_4expr9AttributeINS0_6theory7strings31ArithEntailConstantBoundLowerIdENS0_12NodeTemplateILb1EEEEEEEvNS8_ILb0EEERKT_RKNSC_10value_typeE(ptr noundef nonnull align 8 dereferenceable(3560) %0, ptr noundef %1, ptr noundef nonnull align 1 dereferenceable(1) %2, ptr noundef nonnull align 8 dereferenceable(8) %3) #8 comdat align 2 {
  %5 = alloca ptr, align 8
  %6 = alloca ptr, align 8
  %7 = alloca ptr, align 8
  %8 = alloca ptr, align 8
  %9 = alloca %"class.cvc5::internal::expr::Attribute", align 1
  store ptr %0, ptr %5, align 8, !tbaa !38
  store ptr %1, ptr %6, align 8, !tbaa !46
  store ptr %2, ptr %7, align 8, !tbaa !220
  store ptr %3, ptr %8, align 8, !tbaa !29
  %10 = load ptr, ptr %5, align 8
  %11 = getelementptr inbounds nuw %"class.cvc5::internal::NodeManager", ptr %10, i32 0, i32 4
  %12 = load ptr, ptr %11, align 8, !tbaa !726
  %13 = getelementptr inbounds nuw %"class.cvc5::internal::NodeTemplate.73", ptr %1, i32 0, i32 0
  %14 = load ptr, ptr %13, align 8, !tbaa !48
  call void @llvm.lifetime.start.p0(i64 1, ptr %9) #3
  %15 = load ptr, ptr %8, align 8, !tbaa !29
  call void @_ZN4cvc58internal4expr4attr16AttributeManager12setAttributeINS1_9AttributeINS0_6theory7strings31ArithEntailConstantBoundLowerIdENS0_12NodeTemplateILb1EEEEEEEvPNS1_9NodeValueERKT_RKNSE_10value_typeE(ptr noundef nonnull align 8 dereferenceable(344) %12, ptr noundef %14, ptr noundef nonnull align 1 dereferenceable(1) %9, ptr noundef nonnull align 8 dereferenceable(8) %15)
  call void @llvm.lifetime.end.p0(i64 1, ptr %9) #3
  ret void
}

; Function Attrs: mustprogress nounwind uwtable
define linkonce_odr hidden void @_ZN4cvc58internal12NodeTemplateILb0EEC2ERKS2_(ptr noundef nonnull align 8 dereferenceable(8) %0, ptr noundef nonnull align 8 dereferenceable(8) %1) unnamed_addr #5 comdat align 2 {
  %3 = alloca ptr, align 8
  %4 = alloca ptr, align 8
  store ptr %0, ptr %3, align 8, !tbaa !46
  store ptr %1, ptr %4, align 8, !tbaa !46
  %5 = load ptr, ptr %3, align 8
  %6 = load ptr, ptr %4, align 8, !tbaa !46
  %7 = getelementptr inbounds nuw %"class.cvc5::internal::NodeTemplate.73", ptr %6, i32 0, i32 0
  %8 = load ptr, ptr %7, align 8, !tbaa !48
  %9 = getelementptr inbounds nuw %"class.cvc5::internal::NodeTemplate.73", ptr %5, i32 0, i32 0
  store ptr %8, ptr %9, align 8, !tbaa !48
  ret void
}

; Function Attrs: mustprogress nounwind uwtable
define linkonce_odr hidden noundef ptr @_ZNK4cvc58internal4expr9NodeValue14getNodeManagerEv(ptr noundef nonnull align 8 dereferenceable(24) %0) #5 comdat align 2 {
  %2 = alloca ptr, align 8
  store ptr %0, ptr %2, align 8, !tbaa !91
  %3 = load ptr, ptr %2, align 8
  %4 = getelementptr inbounds nuw %"class.cvc5::internal::expr::NodeValue", ptr %3, i32 0, i32 2
  %5 = load ptr, ptr %4, align 8, !tbaa !258
  ret ptr %5
}

; Function Attrs: inlinehint mustprogress nounwind uwtable
define linkonce_odr hidden void @_ZNK4cvc58internal12NodeTemplateILb0EE21assertTNodeNotExpiredEv(ptr noundef nonnull align 8 dereferenceable(8) %0) #7 comdat align 2 {
  %2 = alloca ptr, align 8
  store ptr %0, ptr %2, align 8, !tbaa !46
  ret void
}

; Function Attrs: inlinehint mustprogress uwtable
define linkonce_odr hidden void @_ZN4cvc58internal12NodeTemplateILb0EE12setAttributeINS0_4expr9AttributeINS0_6theory7strings31ArithEntailConstantBoundUpperIdENS1_ILb1EEEEEEEvRKT_RKNSB_10value_typeE(ptr noundef nonnull align 8 dereferenceable(8) %0, ptr noundef nonnull align 1 dereferenceable(1) %1, ptr noundef nonnull align 8 dereferenceable(8) %2) #8 comdat align 2 personality ptr @__gxx_personality_v0 {
  %4 = alloca ptr, align 8
  %5 = alloca ptr, align 8
  %6 = alloca ptr, align 8
  %7 = alloca %"class.cvc5::internal::NodeTemplate.73", align 8
  %8 = alloca %"class.cvc5::internal::expr::Attribute.234", align 1
  %9 = alloca ptr, align 8
  %10 = alloca i32, align 4
  store ptr %0, ptr %4, align 8, !tbaa !46
  store ptr %1, ptr %5, align 8, !tbaa !222
  store ptr %2, ptr %6, align 8, !tbaa !29
  %11 = load ptr, ptr %4, align 8
  call void @_ZNK4cvc58internal12NodeTemplateILb0EE21assertTNodeNotExpiredEv(ptr noundef nonnull align 8 dereferenceable(8) %11)
  %12 = getelementptr inbounds nuw %"class.cvc5::internal::NodeTemplate.73", ptr %11, i32 0, i32 0
  %13 = load ptr, ptr %12, align 8, !tbaa !48
  %14 = call noundef ptr @_ZNK4cvc58internal4expr9NodeValue14getNodeManagerEv(ptr noundef nonnull align 8 dereferenceable(24) %13)
  call void @_ZN4cvc58internal12NodeTemplateILb0EEC2ERKS2_(ptr noundef nonnull align 8 dereferenceable(8) %7, ptr noundef nonnull align 8 dereferenceable(8) %11)
  call void @llvm.lifetime.start.p0(i64 1, ptr %8) #3
  %15 = load ptr, ptr %6, align 8, !tbaa !29
  invoke void @_ZN4cvc58internal11NodeManager12setAttributeINS0_4expr9AttributeINS0_6theory7strings31ArithEntailConstantBoundUpperIdENS0_12NodeTemplateILb1EEEEEEEvNS8_ILb0EEERKT_RKNSC_10value_typeE(ptr noundef nonnull align 8 dereferenceable(3560) %14, ptr noundef %7, ptr noundef nonnull align 1 dereferenceable(1) %8, ptr noundef nonnull align 8 dereferenceable(8) %15)
          to label %16 unwind label %17

16:                                               ; preds = %3
  call void @llvm.lifetime.end.p0(i64 1, ptr %8) #3
  call void @_ZN4cvc58internal12NodeTemplateILb0EED2Ev(ptr noundef nonnull align 8 dereferenceable(8) %7) #3
  ret void

17:                                               ; preds = %3
  %18 = landingpad { ptr, i32 }
          cleanup
  %19 = extractvalue { ptr, i32 } %18, 0
  store ptr %19, ptr %9, align 8
  %20 = extractvalue { ptr, i32 } %18, 1
  store i32 %20, ptr %10, align 4
  call void @llvm.lifetime.end.p0(i64 1, ptr %8) #3
  call void @_ZN4cvc58internal12NodeTemplateILb0EED2Ev(ptr noundef nonnull align 8 dereferenceable(8) %7) #3
  br label %21

21:                                               ; preds = %17
  %22 = load ptr, ptr %9, align 8
  %23 = load i32, ptr %10, align 4
  %24 = insertvalue { ptr, i32 } poison, ptr %22, 0
  %25 = insertvalue { ptr, i32 } %24, i32 %23, 1
  resume { ptr, i32 } %25
}

; Function Attrs: inlinehint mustprogress uwtable
define linkonce_odr hidden void @_ZN4cvc58internal12NodeTemplateILb0EE12setAttributeINS0_4expr9AttributeINS0_6theory7strings31ArithEntailConstantBoundLowerIdENS1_ILb1EEEEEEEvRKT_RKNSB_10value_typeE(ptr noundef nonnull align 8 dereferenceable(8) %0, ptr noundef nonnull align 1 dereferenceable(1) %1, ptr noundef nonnull align 8 dereferenceable(8) %2) #8 comdat align 2 personality ptr @__gxx_personality_v0 {
  %4 = alloca ptr, align 8
  %5 = alloca ptr, align 8
  %6 = alloca ptr, align 8
  %7 = alloca %"class.cvc5::internal::NodeTemplate.73", align 8
  %8 = alloca %"class.cvc5::internal::expr::Attribute", align 1
  %9 = alloca ptr, align 8
  %10 = alloca i32, align 4
  store ptr %0, ptr %4, align 8, !tbaa !46
  store ptr %1, ptr %5, align 8, !tbaa !220
  store ptr %2, ptr %6, align 8, !tbaa !29
  %11 = load ptr, ptr %4, align 8
  call void @_ZNK4cvc58internal12NodeTemplateILb0EE21assertTNodeNotExpiredEv(ptr noundef nonnull align 8 dereferenceable(8) %11)
  %12 = getelementptr inbounds nuw %"class.cvc5::internal::NodeTemplate.73", ptr %11, i32 0, i32 0
  %13 = load ptr, ptr %12, align 8, !tbaa !48
  %14 = call noundef ptr @_ZNK4cvc58internal4expr9NodeValue14getNodeManagerEv(ptr noundef nonnull align 8 dereferenceable(24) %13)
  call void @_ZN4cvc58internal12NodeTemplateILb0EEC2ERKS2_(ptr noundef nonnull align 8 dereferenceable(8) %7, ptr noundef nonnull align 8 dereferenceable(8) %11)
  call void @llvm.lifetime.start.p0(i64 1, ptr %8) #3
  %15 = load ptr, ptr %6, align 8, !tbaa !29
  invoke void @_ZN4cvc58internal11NodeManager12setAttributeINS0_4expr9AttributeINS0_6theory7strings31ArithEntailConstantBoundLowerIdENS0_12NodeTemplateILb1EEEEEEEvNS8_ILb0EEERKT_RKNSC_10value_typeE(ptr noundef nonnull align 8 dereferenceable(3560) %14, ptr noundef %7, ptr noundef nonnull align 1 dereferenceable(1) %8, ptr noundef nonnull align 8 dereferenceable(8) %15)
          to label %16 unwind label %17

16:                                               ; preds = %3
  call void @llvm.lifetime.end.p0(i64 1, ptr %8) #3
  call void @_ZN4cvc58internal12NodeTemplateILb0EED2Ev(ptr noundef nonnull align 8 dereferenceable(8) %7) #3
  ret void

17:                                               ; preds = %3
  %18 = landingpad { ptr, i32 }
          cleanup
  %19 = extractvalue { ptr, i32 } %18, 0
  store ptr %19, ptr %9, align 8
  %20 = extractvalue { ptr, i32 } %18, 1
  store i32 %20, ptr %10, align 4
  call void @llvm.lifetime.end.p0(i64 1, ptr %8) #3
  call void @_ZN4cvc58internal12NodeTemplateILb0EED2Ev(ptr noundef nonnull align 8 dereferenceable(8) %7) #3
  br label %21

21:                                               ; preds = %17
  %22 = load ptr, ptr %9, align 8
  %23 = load i32, ptr %10, align 4
  %24 = insertvalue { ptr, i32 } poison, ptr %22, 0
  %25 = insertvalue { ptr, i32 } %24, i32 %23, 1
  resume { ptr, i32 } %25
}

; Function Attrs: mustprogress uwtable
define hidden void @_ZN4cvc58internal6theory7strings11ArithEntail21setConstantBoundCacheENS0_12NodeTemplateILb0EEENS4_ILb1EEEb(ptr noundef %0, ptr noundef %1, i1 noundef zeroext %2) #4 align 2 {
  %4 = alloca ptr, align 8
  %5 = alloca ptr, align 8
  %6 = alloca i8, align 1
  %7 = alloca %"class.cvc5::internal::expr::Attribute", align 1
  %8 = alloca %"class.cvc5::internal::expr::Attribute.234", align 1
  store ptr %0, ptr %4, align 8, !tbaa !46
  store ptr %1, ptr %5, align 8, !tbaa !29
  %9 = zext i1 %2 to i8
  store i8 %9, ptr %6, align 1, !tbaa !10
  %10 = load i8, ptr %6, align 1, !tbaa !10, !range !26, !noundef !27
  %11 = trunc i8 %10 to i1
  br i1 %11, label %12, label %13

12:                                               ; preds = %3
  call void @llvm.lifetime.start.p0(i64 1, ptr %7) #3
  call void @_ZN4cvc58internal12NodeTemplateILb0EE12setAttributeINS0_4expr9AttributeINS0_6theory7strings31ArithEntailConstantBoundLowerIdENS1_ILb1EEEEEEEvRKT_RKNSB_10value_typeE(ptr noundef nonnull align 8 dereferenceable(8) %0, ptr noundef nonnull align 1 dereferenceable(1) %7, ptr noundef nonnull align 8 dereferenceable(8) %1)
  call void @llvm.lifetime.end.p0(i64 1, ptr %7) #3
  br label %14

13:                                               ; preds = %3
  call void @llvm.lifetime.start.p0(i64 1, ptr %8) #3
  call void @_ZN4cvc58internal12NodeTemplateILb0EE12setAttributeINS0_4expr9AttributeINS0_6theory7strings31ArithEntailConstantBoundUpperIdENS1_ILb1EEEEEEEvRKT_RKNSB_10value_typeE(ptr noundef nonnull align 8 dereferenceable(8) %0, ptr noundef nonnull align 1 dereferenceable(1) %8, ptr noundef nonnull align 8 dereferenceable(8) %1)
  call void @llvm.lifetime.end.p0(i64 1, ptr %8) #3
  br label %14

14:                                               ; preds = %13, %12
  ret void
}